target datalayout = "e-m:e-p270:32:32-p271:32:32-p272:64:64-i64:64-i128:128-f80:128-n8:16:32:64-S128"
target triple = "x86_64-pc-linux-gnu"

%"class.clang::interp::Context" = type <{ ptr, %"class.clang::interp::InterpStack", %"class.std::unique_ptr", i32, [4 x i8] }>
%"class.clang::interp::InterpStack" = type { ptr, i64 }
%"class.std::unique_ptr" = type { %"struct.std::__uniq_ptr_data" }
%"struct.std::__uniq_ptr_data" = type { %"class.std::__uniq_ptr_impl" }
%"class.std::__uniq_ptr_impl" = type { %"class.std::tuple" }
%"class.std::tuple" = type { %"struct.std::_Tuple_impl" }
%"struct.std::_Tuple_impl" = type { %"struct.std::_Head_base.1" }
%"struct.std::_Head_base.1" = type { ptr }
%"class.llvm::SmallVectorBase" = type { ptr, i32, i32 }
%"class.llvm::iterator_range.576" = type { ptr, ptr }
%"struct.clang::interp::Record::Base" = type { ptr, i32, ptr, ptr }
%"class.clang::interp::Record" = type <{ ptr, %"class.llvm::SmallVector.577", %"class.llvm::SmallVector.582", %"class.llvm::SmallVector.587", %"class.llvm::DenseMap.589", %"class.llvm::DenseMap.592", %"class.llvm::DenseMap.595", i32, i32, i8, [7 x i8] }>
%"class.llvm::SmallVector.577" = type { %"class.llvm::SmallVectorImpl.578", %"struct.llvm::SmallVectorStorage.581" }
%"class.llvm::SmallVectorImpl.578" = type { %"class.llvm::SmallVectorTemplateBase.579" }
%"class.llvm::SmallVectorTemplateBase.579" = type { %"class.llvm::SmallVectorTemplateCommon.580" }
%"class.llvm::SmallVectorTemplateCommon.580" = type { %"class.llvm::SmallVectorBase" }
%"struct.llvm::SmallVectorStorage.581" = type { [256 x i8] }
%"class.llvm::SmallVector.582" = type { %"class.llvm::SmallVectorImpl.583", %"struct.llvm::SmallVectorStorage.586" }
%"class.llvm::SmallVectorImpl.583" = type { %"class.llvm::SmallVectorTemplateBase.584" }
%"class.llvm::SmallVectorTemplateBase.584" = type { %"class.llvm::SmallVectorTemplateCommon.585" }
%"class.llvm::SmallVectorTemplateCommon.585" = type { %"class.llvm::SmallVectorBase" }
%"struct.llvm::SmallVectorStorage.586" = type { [192 x i8] }
%"class.llvm::SmallVector.587" = type { %"class.llvm::SmallVectorImpl.578", %"struct.llvm::SmallVectorStorage.588" }
%"struct.llvm::SmallVectorStorage.588" = type { [64 x i8] }
%"class.llvm::DenseMap.589" = type <{ ptr, i32, i32, i32, [4 x i8] }>
%"class.llvm::DenseMap.592" = type <{ ptr, i32, i32, i32, [4 x i8] }>
%"class.llvm::DenseMap.595" = type <{ ptr, i32, i32, i32, [4 x i8] }>

; Function Attrs: mustprogress nounwind uwtable
define linkonce_odr hidden noundef nonnull align 8 dereferenceable(8) ptr @_ZNSt10_Head_baseILm0EPN5clang6interp7ProgramELb0EE7_M_headERKS4_(ptr noundef nonnull align 8 dereferenceable(8) %0) #0 comdat align 2 {
  %2 = alloca ptr, align 8
  store ptr %0, ptr %2, align 8
  %3 = load ptr, ptr %2, align 8
  %4 = getelementptr inbounds nuw %"struct.std::_Head_base.1", ptr %3, i32 0, i32 0
  ret ptr %4
}

; Function Attrs: mustprogress nounwind uwtable
define linkonce_odr hidden noundef nonnull align 8 dereferenceable(8) ptr @_ZNSt11_Tuple_implILm0EJPN5clang6interp7ProgramESt14default_deleteIS2_EEE7_M_headERKS6_(ptr noundef nonnull align 8 dereferenceable(8) %0) #0 comdat align 2 {
  %2 = alloca ptr, align 8
  store ptr %0, ptr %2, align 8
  %3 = load ptr, ptr %2, align 8
  %4 = call noundef nonnull align 8 dereferenceable(8) ptr @_ZNSt10_Head_baseILm0EPN5clang6interp7ProgramELb0EE7_M_headERKS4_(ptr noundef nonnull align 8 dereferenceable(8) %3) #10
  ret ptr %4
}

; Function Attrs: mustprogress nounwind uwtable
define linkonce_odr noundef nonnull align 8 dereferenceable(8) ptr @_ZSt12__get_helperILm0EPN5clang6interp7ProgramEJSt14default_deleteIS2_EEERKT0_RKSt11_Tuple_implIXT_EJS6_DpT1_EE(ptr noundef nonnull align 8 dereferenceable(8) %0) #0 comdat {
  %2 = alloca ptr, align 8
  store ptr %0, ptr %2, align 8
  %3 = load ptr, ptr %2, align 8
  %4 = call noundef nonnull align 8 dereferenceable(8) ptr @_ZNSt11_Tuple_implILm0EJPN5clang6interp7ProgramESt14default_deleteIS2_EEE7_M_headERKS6_(ptr noundef nonnull align 8 dereferenceable(8) %3) #10
  ret ptr %4
}

; Function Attrs: mustprogress nounwind uwtable
define linkonce_odr noundef nonnull align 8 dereferenceable(8) ptr @_ZSt3getILm0EJPN5clang6interp7ProgramESt14default_deleteIS2_EEERKNSt13tuple_elementIXT_ESt5tupleIJDpT0_EEE4typeERKSA_(ptr noundef nonnull align 8 dereferenceable(8) %0) #0 comdat {
  %2 = alloca ptr, align 8
  store ptr %0, ptr %2, align 8
  %3 = load ptr, ptr %2, align 8
  %4 = call noundef nonnull align 8 dereferenceable(8) ptr @_ZSt12__get_helperILm0EPN5clang6interp7ProgramEJSt14default_deleteIS2_EEERKT0_RKSt11_Tuple_implIXT_EJS6_DpT1_EE(ptr noundef nonnull align 8 dereferenceable(8) %3) #10
  ret ptr %4
}

; Function Attrs: mustprogress nounwind uwtable
define linkonce_odr hidden void @_ZN4llvm14iterator_rangeIPKN5clang6interp6Record4BaseEEC2ES6_S6_(ptr noundef nonnull align 8 dereferenceable(16) %0, ptr noundef %1, ptr noundef %2) unnamed_addr #0 comdat align 2 {
  %4 = alloca ptr, align 8
  %5 = alloca ptr, align 8
  %6 = alloca ptr, align 8
  store ptr %0, ptr %4, align 8
  store ptr %1, ptr %5, align 8
  store ptr %2, ptr %6, align 8
  %7 = load ptr, ptr %4, align 8
  %8 = getelementptr inbounds nuw %"class.llvm::iterator_range.576", ptr %7, i32 0, i32 0
  %9 = load ptr, ptr %5, align 8
  store ptr %9, ptr %8, align 8
  %10 = getelementptr inbounds nuw %"class.llvm::iterator_range.576", ptr %7, i32 0, i32 1
  %11 = load ptr, ptr %6, align 8
  store ptr %11, ptr %10, align 8
  ret void
}

; Function Attrs: mustprogress nounwind uwtable
define linkonce_odr hidden noundef ptr @_ZNKSt15__uniq_ptr_implIN5clang6interp7ProgramESt14default_deleteIS2_EE6_M_ptrEv(ptr noundef nonnull align 8 dereferenceable(8) %0) #0 comdat align 2 {
  %2 = alloca ptr, align 8
  store ptr %0, ptr %2, align 8
  %3 = load ptr, ptr %2, align 8
  %4 = getelementptr inbounds nuw %"class.std::__uniq_ptr_impl", ptr %3, i32 0, i32 0
  %5 = call noundef nonnull align 8 dereferenceable(8) ptr @_ZSt3getILm0EJPN5clang6interp7ProgramESt14default_deleteIS2_EEERKNSt13tuple_elementIXT_ESt5tupleIJDpT0_EEE4typeERKSA_(ptr noundef nonnull align 8 dereferenceable(8) %4) #10
  %6 = load ptr, ptr %5, align 8
  ret ptr %6
}

; Function Attrs: mustprogress nounwind uwtable
define linkonce_odr hidden noundef ptr @_ZN4llvm16cast_convert_valIN5clang13CXXRecordDeclEPKNS1_10RecordDeclES5_E4doitES5_(ptr noundef %0) #0 comdat align 2 {
  %2 = alloca ptr, align 8
  store ptr %0, ptr %2, align 8
  %3 = load ptr, ptr %2, align 8
  ret ptr %3
}

; Function Attrs: mustprogress nounwind uwtable
define linkonce_odr { ptr, ptr } @_ZN4llvm10make_rangeIPKN5clang6interp6Record4BaseEEENS_14iterator_rangeIT_EES8_S8_(ptr noundef %0, ptr noundef %1) #0 comdat {
  %3 = alloca %"class.llvm::iterator_range.576", align 8
  %4 = alloca ptr, align 8
  %5 = alloca ptr, align 8
  store ptr %0, ptr %4, align 8
  store ptr %1, ptr %5, align 8
  %6 = load ptr, ptr %4, align 8
  %7 = load ptr, ptr %5, align 8
  call void @_ZN4llvm14iterator_rangeIPKN5clang6interp6Record4BaseEEC2ES6_S6_(ptr noundef nonnull align 8 dereferenceable(16) %3, ptr noundef %6, ptr noundef %7)
  %8 = load { ptr, ptr }, ptr %3, align 8
  ret { ptr, ptr } %8
}

; Function Attrs: mustprogress nounwind uwtable
define linkonce_odr hidden noundef ptr @_ZNK4llvm25SmallVectorTemplateCommonIN5clang6interp6Record4BaseEvE3endEv(ptr noundef nonnull align 8 dereferenceable(16) %0) #0 comdat align 2 {
  %2 = alloca ptr, align 8
  store ptr %0, ptr %2, align 8
  %3 = load ptr, ptr %2, align 8
  %4 = call noundef ptr @_ZNK4llvm25SmallVectorTemplateCommonIN5clang6interp6Record4BaseEvE5beginEv(ptr noundef nonnull align 8 dereferenceable(16) %3)
  %5 = call noundef i64 @_ZNK4llvm15SmallVectorBaseIjE4sizeEv(ptr noundef nonnull align 8 dereferenceable(16) %3)
  %6 = getelementptr inbounds %"struct.clang::interp::Record::Base", ptr %4, i64 %5
  ret ptr %6
}

; Function Attrs: mustprogress nounwind uwtable
define linkonce_odr hidden noundef ptr @_ZNK4llvm25SmallVectorTemplateCommonIN5clang6interp6Record4BaseEvE5beginEv(ptr noundef nonnull align 8 dereferenceable(16) %0) #0 comdat align 2 {
  %2 = alloca ptr, align 8
  store ptr %0, ptr %2, align 8
  %3 = load ptr, ptr %2, align 8
  %4 = getelementptr inbounds nuw %"class.llvm::SmallVectorBase", ptr %3, i32 0, i32 0
  %5 = load ptr, ptr %4, align 8
  ret ptr %5
}

; Function Attrs: mustprogress nounwind uwtable
define linkonce_odr hidden noundef ptr @_ZNKSt10unique_ptrIN5clang6interp7ProgramESt14default_deleteIS2_EE3getEv(ptr noundef nonnull align 8 dereferenceable(8) %0) #0 comdat align 2 {
  %2 = alloca ptr, align 8
  store ptr %0, ptr %2, align 8
  %3 = load ptr, ptr %2, align 8
  %4 = getelementptr inbounds nuw %"class.std::unique_ptr", ptr %3, i32 0, i32 0
  %5 = call noundef ptr @_ZNKSt15__uniq_ptr_implIN5clang6interp7ProgramESt14default_deleteIS2_EE6_M_ptrEv(ptr noundef nonnull align 8 dereferenceable(8) %4) #10
  ret ptr %5
}

; Function Attrs: mustprogress nounwind uwtable
define linkonce_odr hidden noundef ptr @_ZN4llvm8CastInfoIN5clang13CXXRecordDeclEPKNS1_10RecordDeclEvE6doCastERKS5_(ptr noundef nonnull align 8 dereferenceable(8) %0) #0 comdat align 2 {
  %2 = alloca ptr, align 8
  store ptr %0, ptr %2, align 8
  %3 = load ptr, ptr %2, align 8
  %4 = load ptr, ptr %3, align 8
  %5 = call noundef ptr @_ZN4llvm16cast_convert_valIN5clang13CXXRecordDeclEPKNS1_10RecordDeclES5_E4doitES5_(ptr noundef %4)
  ret ptr %5
}

; Function Attrs: mustprogress nounwind uwtable
define linkonce_odr hidden noundef ptr @_ZNK4llvm14iterator_rangeIPKN5clang6interp6Record4BaseEE3endEv(ptr noundef nonnull align 8 dereferenceable(16) %0) #0 comdat align 2 {
  %2 = alloca ptr, align 8
  store ptr %0, ptr %2, align 8
  %3 = load ptr, ptr %2, align 8
  %4 = getelementptr inbounds nuw %"class.llvm::iterator_range.576", ptr %3, i32 0, i32 1
  %5 = load ptr, ptr %4, align 8
  ret ptr %5
}

; Function Attrs: mustprogress nounwind uwtable
define linkonce_odr hidden noundef ptr @_ZNK4llvm14iterator_rangeIPKN5clang6interp6Record4BaseEE5beginEv(ptr noundef nonnull align 8 dereferenceable(16) %0) #0 comdat align 2 {
  %2 = alloca ptr, align 8
  store ptr %0, ptr %2, align 8
  %3 = load ptr, ptr %2, align 8
  %4 = getelementptr inbounds nuw %"class.llvm::iterator_range.576", ptr %3, i32 0, i32 0
  %5 = load ptr, ptr %4, align 8
  ret ptr %5
}

; Function Attrs: mustprogress nounwind uwtable
define linkonce_odr hidden { ptr, ptr } @_ZNK5clang6interp6Record5basesEv(ptr noundef nonnull align 8 dereferenceable(656) %0) #0 comdat align 2 {
  %2 = alloca %"class.llvm::iterator_range.576", align 8
  %3 = alloca ptr, align 8
  store ptr %0, ptr %3, align 8
  %4 = load ptr, ptr %3, align 8
  %5 = getelementptr inbounds nuw %"class.clang::interp::Record", ptr %4, i32 0, i32 1
  %6 = call noundef ptr @_ZNK4llvm25SmallVectorTemplateCommonIN5clang6interp6Record4BaseEvE5beginEv(ptr noundef nonnull align 8 dereferenceable(16) %5)
  %7 = getelementptr inbounds nuw %"class.clang::interp::Record", ptr %4, i32 0, i32 1
  %8 = call noundef ptr @_ZNK4llvm25SmallVectorTemplateCommonIN5clang6interp6Record4BaseEvE3endEv(ptr noundef nonnull align 8 dereferenceable(16) %7)
  %9 = call { ptr, ptr } @_ZN4llvm10make_rangeIPKN5clang6interp6Record4BaseEEENS_14iterator_rangeIT_EES8_S8_(ptr noundef %6, ptr noundef %8)
  %10 = getelementptr inbounds nuw { ptr, ptr }, ptr %2, i32 0, i32 0
  %11 = extractvalue { ptr, ptr } %9, 0
  store ptr %11, ptr %10, align 8
  %12 = getelementptr inbounds nuw { ptr, ptr }, ptr %2, i32 0, i32 1
  %13 = extractvalue { ptr, ptr } %9, 1
  store ptr %13, ptr %12, align 8
  %14 = load { ptr, ptr }, ptr %2, align 8
  ret { ptr, ptr } %14
}

; Function Attrs: mustprogress nounwind uwtable
define linkonce_odr hidden noundef ptr @_ZNKSt10unique_ptrIN5clang6interp7ProgramESt14default_deleteIS2_EEptEv(ptr noundef nonnull align 8 dereferenceable(8) %0) #0 comdat align 2 {
  %2 = alloca ptr, align 8
  store ptr %0, ptr %2, align 8
  %3 = load ptr, ptr %2, align 8
  %4 = call noundef ptr @_ZNKSt10unique_ptrIN5clang6interp7ProgramESt14default_deleteIS2_EE3getEv(ptr noundef nonnull align 8 dereferenceable(8) %3) #10
  ret ptr %4
}

; Function Attrs: mustprogress nounwind uwtable
define linkonce_odr hidden noundef ptr @_ZN4llvm4castIN5clang13CXXRecordDeclEKNS1_10RecordDeclEEEDcPT0_(ptr noundef %0) #0 comdat {
  %2 = alloca ptr, align 8
  store ptr %0, ptr %2, align 8
  %3 = call noundef ptr @_ZN4llvm8CastInfoIN5clang13CXXRecordDeclEPKNS1_10RecordDeclEvE6doCastERKS5_(ptr noundef nonnull align 8 dereferenceable(8) %2)
  ret ptr %3
}

; Function Attrs: mustprogress nounwind uwtable
define dso_local noundef i32 @_ZNK5clang6interp7Context17collectBaseOffsetEPKNS_10RecordDeclES4_(ptr noundef nonnull align 8 dereferenceable(40) %0, ptr noundef %1, ptr noundef %2) #0 align 2 {
  %4 = alloca ptr, align 8
  %5 = alloca ptr, align 8
  %6 = alloca ptr, align 8
  %7 = alloca ptr, align 8
  %8 = alloca ptr, align 8
  %9 = alloca ptr, align 8
  %10 = alloca i32, align 4
  %11 = alloca ptr, align 8
  %12 = alloca %"class.llvm::iterator_range.576", align 8
  %13 = alloca ptr, align 8
  %14 = alloca ptr, align 8
  %15 = alloca ptr, align 8
  %16 = alloca ptr, align 8
  store ptr %0, ptr %4, align 8
  store ptr %1, ptr %5, align 8
  store ptr %2, ptr %6, align 8
  %17 = load ptr, ptr %4, align 8
  %18 = load ptr, ptr %5, align 8
  %19 = call noundef ptr @_ZN4llvm4castIN5clang13CXXRecordDeclEKNS1_10RecordDeclEEEDcPT0_(ptr noundef %18)
  store ptr %19, ptr %7, align 8
  %20 = load ptr, ptr %6, align 8
  store ptr %20, ptr %8, align 8
  %21 = getelementptr inbounds nuw %"class.clang::interp::Context", ptr %17, i32 0, i32 2
  %22 = call noundef ptr @_ZNKSt10unique_ptrIN5clang6interp7ProgramESt14default_deleteIS2_EEptEv(ptr noundef nonnull align 8 dereferenceable(8) %21) #10
  %23 = load ptr, ptr %8, align 8
  %24 = call noundef ptr @_ZN5clang6interp7Program17getOrCreateRecordEPKNS_10RecordDeclE(ptr noundef nonnull align 8 dereferenceable(328) %22, ptr noundef %23)
  store ptr %24, ptr %9, align 8
  store i32 0, ptr %10, align 4
  br label %25

25:                                               ; preds = %72, %3
  %26 = load ptr, ptr %9, align 8
  %27 = call { ptr, ptr } @_ZNK5clang6interp6Record5basesEv(ptr noundef nonnull align 8 dereferenceable(656) %26)
  %28 = getelementptr inbounds nuw { ptr, ptr }, ptr %12, i32 0, i32 0
  %29 = extractvalue { ptr, ptr } %27, 0
  store ptr %29, ptr %28, align 8
  %30 = getelementptr inbounds nuw { ptr, ptr }, ptr %12, i32 0, i32 1
  %31 = extractvalue { ptr, ptr } %27, 1
  store ptr %31, ptr %30, align 8
  store ptr %12, ptr %11, align 8
  %32 = load ptr, ptr %11, align 8
  %33 = call noundef ptr @_ZNK4llvm14iterator_rangeIPKN5clang6interp6Record4BaseEE5beginEv(ptr noundef nonnull align 8 dereferenceable(16) %32)
  store ptr %33, ptr %13, align 8
  %34 = load ptr, ptr %11, align 8
  %35 = call noundef ptr @_ZNK4llvm14iterator_rangeIPKN5clang6interp6Record4BaseEE3endEv(ptr noundef nonnull align 8 dereferenceable(16) %34)
  store ptr %35, ptr %14, align 8
  br label %36

36:                                               ; preds = %64, %25
  %37 = load ptr, ptr %13, align 8
  %38 = load ptr, ptr %14, align 8
  %39 = icmp ne ptr %37, %38
  br i1 %39, label %40, label %67

40:                                               ; preds = %36
  %41 = load ptr, ptr %13, align 8
  store ptr %41, ptr %15, align 8
  %42 = load ptr, ptr %15, align 8
  %43 = getelementptr inbounds nuw %"struct.clang::interp::Record::Base", ptr %42, i32 0, i32 0
  %44 = load ptr, ptr %43, align 8
  %45 = call noundef ptr @_ZN4llvm4castIN5clang13CXXRecordDeclEKNS1_10RecordDeclEEEDcPT0_(ptr noundef %44)
  store ptr %45, ptr %16, align 8
  %46 = load ptr, ptr %16, align 8
  %47 = load ptr, ptr %7, align 8
  %48 = icmp eq ptr %46, %47
  br i1 %48, label %53, label %49

49:                                               ; preds = %40
  %50 = load ptr, ptr %16, align 8
  %51 = load ptr, ptr %7, align 8
  %52 = call noundef zeroext i1 @_ZNK5clang13CXXRecordDecl13isDerivedFromEPKS0_(ptr noundef nonnull align 8 dereferenceable(144) %50, ptr noundef %51)
  br i1 %52, label %53, label %63

53:                                               ; preds = %49, %40
  %54 = load ptr, ptr %15, align 8
  %55 = getelementptr inbounds nuw %"struct.clang::interp::Record::Base", ptr %54, i32 0, i32 1
  %56 = load i32, ptr %55, align 8
  %57 = load i32, ptr %10, align 4
  %58 = add i32 %57, %56
  store i32 %58, ptr %10, align 4
  %59 = load ptr, ptr %15, align 8
  %60 = getelementptr inbounds nuw %"struct.clang::interp::Record::Base", ptr %59, i32 0, i32 3
  %61 = load ptr, ptr %60, align 8
  store ptr %61, ptr %9, align 8
  %62 = load ptr, ptr %16, align 8
  store ptr %62, ptr %8, align 8
  br label %67

63:                                               ; preds = %49
  br label %64

64:                                               ; preds = %63
  %65 = load ptr, ptr %13, align 8
  %66 = getelementptr inbounds %"struct.clang::interp::Record::Base", ptr %65, i32 1
  store ptr %66, ptr %13, align 8
  br label %36

67:                                               ; preds = %53, %36
  %68 = load ptr, ptr %8, align 8
  %69 = load ptr, ptr %7, align 8
  %70 = icmp eq ptr %68, %69
  br i1 %70, label %71, label %72

71:                                               ; preds = %67
  br label %73

72:                                               ; preds = %67
  br label %25, !llvm.loop !6

73:                                               ; preds = %71
  %74 = load i32, ptr %10, align 4
  ret i32 %74
}