; Function Attrs: mustprogress nounwind uwtable
define dso_local noundef i32 @_ZNK5clang6interp7Context17collectBaseOffsetEPKNS_10RecordDeclES4_(ptr nocapture noundef nonnull readonly align 8 dereferenceable(40) %0, ptr noundef %1, ptr noundef %2) local_unnamed_addr #0 align 2 {
  %4 = getelementptr inbounds nuw i8, ptr %0, i64 24
  %5 = load ptr, ptr %4, align 8
  %6 = tail call noundef ptr @_ZN5clang6interp7Program17getOrCreateRecordEPKNS_10RecordDeclE(ptr noundef nonnull align 8 dereferenceable(328) %5, ptr noundef %2) #13
  br label %7

7:                                                ; preds = %.loopexit, %3
  %.024 = phi i32 [ 0, %3 ], [ %.125, %.loopexit ]
  %.022 = phi ptr [ %6, %3 ], [ %.123, %.loopexit ]
  %.0 = phi ptr [ %2, %3 ], [ %.1, %.loopexit ]
  %8 = getelementptr inbounds nuw i8, ptr %.022, i64 8
  %9 = load ptr, ptr %8, align 8
  %10 = tail call noundef i64 @_ZNK4llvm15SmallVectorBaseIjE4sizeEv(ptr noundef nonnull align 8 dereferenceable(16) %8) #13
  %11 = getelementptr inbounds %"struct.clang::interp::Record::Base", ptr %9, i64 %10
  %.not30 = icmp eq i64 %10, 0
  br i1 %.not30, label %.loopexit, label %.lr.ph

.lr.ph:                                           ; preds = %7, %22
  %.02631 = phi ptr [ %23, %22 ], [ %9, %7 ]
  %12 = load ptr, ptr %.02631, align 8
  %13 = icmp eq ptr %12, %1
  br i1 %13, label %16, label %14

14:                                               ; preds = %.lr.ph
  %15 = tail call noundef zeroext i1 @_ZNK5clang13CXXRecordDecl13isDerivedFromEPKS0_(ptr noundef nonnull align 8 dereferenceable(144) %12, ptr noundef %1) #13
  br i1 %15, label %16, label %22

16:                                               ; preds = %14, %.lr.ph
  %.lcssa = phi ptr [ %12, %14 ], [ %1, %.lr.ph ]
  %17 = getelementptr inbounds nuw i8, ptr %.02631, i64 8
  %18 = load i32, ptr %17, align 8
  %19 = add i32 %18, %.024
  %20 = getelementptr inbounds nuw i8, ptr %.02631, i64 24
  %21 = load ptr, ptr %20, align 8
  br label %.loopexit

22:                                               ; preds = %14
  %23 = getelementptr inbounds i8, ptr %.02631, i64 32
  %.not = icmp eq ptr %23, %11
  br i1 %.not, label %.loopexit, label %.lr.ph

.loopexit:                                        ; preds = %22, %7, %16
  %.125 = phi i32 [ %19, %16 ], [ %.024, %7 ], [ %.024, %22 ]
  %.123 = phi ptr [ %21, %16 ], [ %.022, %7 ], [ %.022, %22 ]
  %.1 = phi ptr [ %.lcssa, %16 ], [ %.0, %7 ], [ %.0, %22 ]
  %24 = icmp eq ptr %.1, %1
  br i1 %24, label %25, label %7, !llvm.loop !7

25:                                               ; preds = %.loopexit
  ret i32 %.125
}